target datalayout = "e-m:e-p270:32:32-p271:32:32-p272:64:64-i64:64-i128:128-f80:128-n8:16:32:64-S128"
target triple = "x86_64-unknown-linux-gnu"

%struct.uv__queue = type { ptr, ptr }
%struct.uv_loop_s = type { ptr, i32, %struct.uv__queue, %union.anon.1, ptr, i32, i64, i32, %struct.uv__queue, %struct.uv__queue, ptr, i32, i32, %struct.uv__queue, %union.pthread_mutex_t, %struct.uv_async_s, %union.pthread_rwlock_t, ptr, %struct.uv__queue, %struct.uv__queue, %struct.uv__queue, %struct.uv__queue, %struct.uv__queue, ptr, %struct.uv__io_s, i32, %struct.anon, i64, i64, [2 x i32], %struct.uv__io_s, %struct.uv_signal_s, i32, %struct.uv__io_s, ptr, i32 }
%union.anon.1 = type { ptr }
%union.pthread_mutex_t = type { %struct.__pthread_mutex_s }
%struct.__pthread_mutex_s = type { i32, i32, i32, i32, i32, i16, i16, %struct.__pthread_internal_list }
%struct.__pthread_internal_list = type { ptr, ptr }
%struct.uv_async_s = type { ptr, ptr, i32, ptr, %struct.uv__queue, %union.anon.2, ptr, i32, ptr, %struct.uv__queue, i32 }
%union.anon.2 = type { [4 x ptr] }
%union.pthread_rwlock_t = type { %struct.__pthread_rwlock_arch_t }
%struct.__pthread_rwlock_arch_t = type { i32, i32, i32, i32, i32, i32, i32, i32, i8, [7 x i8], i64, i32 }
%struct.anon = type { ptr, i32 }
%struct.uv_signal_s = type { ptr, ptr, i32, ptr, %struct.uv__queue, %union.anon.3, ptr, i32, ptr, i32, %struct.anon.4, i32, i32 }
%union.anon.3 = type { [4 x ptr] }
%struct.anon.4 = type { ptr, ptr, ptr, i32 }
%struct.uv__io_s = type { ptr, %struct.uv__queue, %struct.uv__queue, i32, i32, i32 }
%struct.uv_prepare_s = type { ptr, ptr, i32, ptr, %struct.uv__queue, %union.anon, ptr, i32, ptr, %struct.uv__queue }
%union.anon = type { [4 x ptr] }

; Function Attrs: nounwind uwtable
define internal void @uv__queue_remove(ptr noundef %q) #0 {
entry:
  %q.addr = alloca ptr, align 8
  store ptr %q, ptr %q.addr, align 8
  %0 = load ptr, ptr %q.addr, align 8
  %next = getelementptr inbounds %struct.uv__queue, ptr %0, i32 0, i32 0
  %1 = load ptr, ptr %next, align 8
  %2 = load ptr, ptr %q.addr, align 8
  %prev = getelementptr inbounds %struct.uv__queue, ptr %2, i32 0, i32 1
  %3 = load ptr, ptr %prev, align 8
  %next1 = getelementptr inbounds %struct.uv__queue, ptr %3, i32 0, i32 0
  store ptr %1, ptr %next1, align 8
  %4 = load ptr, ptr %q.addr, align 8
  %prev2 = getelementptr inbounds %struct.uv__queue, ptr %4, i32 0, i32 1
  %5 = load ptr, ptr %prev2, align 8
  %6 = load ptr, ptr %q.addr, align 8
  %next3 = getelementptr inbounds %struct.uv__queue, ptr %6, i32 0, i32 0
  %7 = load ptr, ptr %next3, align 8
  %prev4 = getelementptr inbounds %struct.uv__queue, ptr %7, i32 0, i32 1
  store ptr %5, ptr %prev4, align 8
  ret void
}

; Function Attrs: nounwind uwtable
define i32 @uv_prepare_stop(ptr noundef %handle) #0 {
entry:
  %retval = alloca i32, align 4
  %handle.addr = alloca ptr, align 8
  store ptr %handle, ptr %handle.addr, align 8
  %0 = load ptr, ptr %handle.addr, align 8
  %flags = getelementptr inbounds %struct.uv_prepare_s, ptr %0, i32 0, i32 7
  %1 = load i32, ptr %flags, align 8
  %and = and i32 %1, 4
  %cmp = icmp ne i32 %and, 0
  br i1 %cmp, label %if.end, label %if.then

if.then:                                          ; preds = %entry
  store i32 0, ptr %retval, align 4
  br label %return

if.end:                                           ; preds = %entry
  %2 = load ptr, ptr %handle.addr, align 8
  %queue = getelementptr inbounds %struct.uv_prepare_s, ptr %2, i32 0, i32 9
  call void @uv__queue_remove(ptr noundef %queue)
  br label %do.body

do.body:                                          ; preds = %if.end
  %3 = load ptr, ptr %handle.addr, align 8
  %flags1 = getelementptr inbounds %struct.uv_prepare_s, ptr %3, i32 0, i32 7
  %4 = load i32, ptr %flags1, align 8
  %and2 = and i32 %4, 4
  %cmp3 = icmp eq i32 %and2, 0
  br i1 %cmp3, label %if.then4, label %if.end5

if.then4:                                         ; preds = %do.body
  br label %do.end14

if.end5:                                          ; preds = %do.body
  %5 = load ptr, ptr %handle.addr, align 8
  %flags6 = getelementptr inbounds %struct.uv_prepare_s, ptr %5, i32 0, i32 7
  %6 = load i32, ptr %flags6, align 8
  %and7 = and i32 %6, -5
  store i32 %and7, ptr %flags6, align 8
  %7 = load ptr, ptr %handle.addr, align 8
  %flags8 = getelementptr inbounds %struct.uv_prepare_s, ptr %7, i32 0, i32 7
  %8 = load i32, ptr %flags8, align 8
  %and9 = and i32 %8, 8
  %cmp10 = icmp ne i32 %and9, 0
  br i1 %cmp10, label %if.then11, label %if.end13

if.then11:                                        ; preds = %if.end5
  br label %do.body12

do.body12:                                        ; preds = %if.then11
  %9 = load ptr, ptr %handle.addr, align 8
  %loop = getelementptr inbounds %struct.uv_prepare_s, ptr %9, i32 0, i32 1
  %10 = load ptr, ptr %loop, align 8
  %active_handles = getelementptr inbounds %struct.uv_loop_s, ptr %10, i32 0, i32 1
  %11 = load i32, ptr %active_handles, align 8
  %dec = add i32 %11, -1
  store i32 %dec, ptr %active_handles, align 8
  br label %do.end

do.end:                                           ; preds = %do.body12
  br label %if.end13

if.end13:                                         ; preds = %do.end, %if.end5
  br label %do.end14

do.end14:                                         ; preds = %if.end13, %if.then4
  store i32 0, ptr %retval, align 4
  br label %return

return:                                           ; preds = %do.end14, %if.then
  %12 = load i32, ptr %retval, align 4
  ret i32 %12
}

; Function Attrs: nounwind uwtable
define hidden void @uv__prepare_close(ptr noundef %handle) #0 {
entry:
  %handle.addr = alloca ptr, align 8
  store ptr %handle, ptr %handle.addr, align 8
  %0 = load ptr, ptr %handle.addr, align 8
  %call = call i32 @uv_prepare_stop(ptr noundef %0)
  ret void
}