; Function Attrs: mustprogress nofree norecurse nosync nounwind willreturn memory(readwrite, inaccessiblemem: none) uwtable
define hidden void @uv__prepare_close(ptr noundef captures(none) %handle) local_unnamed_addr #1 {
entry:
  %flags.i = getelementptr inbounds nuw i8, ptr %handle, i64 88
  %0 = load i32, ptr %flags.i, align 8
  %and.i = and i32 %0, 4
  %cmp.not.i = icmp eq i32 %and.i, 0
  br i1 %cmp.not.i, label %uv_prepare_stop.exit, label %if.end.i

if.end.i:                                         ; preds = %entry
  %queue.i = getelementptr inbounds nuw i8, ptr %handle, i64 104
  %1 = load ptr, ptr %queue.i, align 8
  %prev.i.i = getelementptr inbounds nuw i8, ptr %handle, i64 112
  %2 = load ptr, ptr %prev.i.i, align 8
  store ptr %1, ptr %2, align 8
  %3 = load ptr, ptr %prev.i.i, align 8
  %prev4.i.i = getelementptr inbounds nuw i8, ptr %1, i64 8
  store ptr %3, ptr %prev4.i.i, align 8
  %4 = load i32, ptr %flags.i, align 8
  %and2.i = and i32 %4, 4
  %cmp3.i = icmp eq i32 %and2.i, 0
  br i1 %cmp3.i, label %uv_prepare_stop.exit, label %if.end5.i

if.end5.i:                                        ; preds = %if.end.i
  %and7.i = and i32 %4, -5
  store i32 %and7.i, ptr %flags.i, align 8
  %and9.i = and i32 %4, 8
  %cmp10.not.i = icmp eq i32 %and9.i, 0
  br i1 %cmp10.not.i, label %uv_prepare_stop.exit, label %do.body12.i

do.body12.i:                                      ; preds = %if.end5.i
  %loop.i = getelementptr inbounds nuw i8, ptr %handle, i64 8
  %5 = load ptr, ptr %loop.i, align 8
  %active_handles.i = getelementptr inbounds nuw i8, ptr %5, i64 8
  %6 = load i32, ptr %active_handles.i, align 8
  %dec.i = add i32 %6, -1
  store i32 %dec.i, ptr %active_handles.i, align 8
  br label %uv_prepare_stop.exit

uv_prepare_stop.exit:                             ; preds = %entry, %if.end.i, %if.end5.i, %do.body12.i
  ret void
}